; Function Attrs: mustprogress nounwind uwtable
define hidden void @_ZN27JvmtiEventControllerPrivate14env_initializeEP12JvmtiEnvBase(ptr noundef %0) local_unnamed_addr #3 align 2 {
  %2 = load i8, ptr @_ZN10JvmtiTrace23_trace_event_controllerE, align 1
  %3 = trunc i8 %2 to i1
  br i1 %3, label %4, label %_ZN16SafeResourceMarkD2Ev.exit

4:                                                ; preds = %1
  %5 = load i32, ptr @_ZN7Threads18_number_of_threadsE, align 4
  %6 = icmp eq i32 %5, 0
  br i1 %6, label %7, label %9

7:                                                ; preds = %4
  %8 = tail call noundef ptr @_ZN9JvmtiUtil29single_threaded_resource_areaEv() #15
  br label %_ZN16SafeResourceMarkC2Ev.exit

9:                                                ; preds = %4
  %10 = tail call align 8 ptr @llvm.threadlocal.address.p0(ptr align 8 @_ZN6Thread12_thr_currentE)
  %11 = load ptr, ptr %10, align 8
  %12 = icmp eq ptr %11, null
  br i1 %12, label %13, label %15

13:                                               ; preds = %9
  %14 = tail call noundef ptr @_ZN9JvmtiUtil29single_threaded_resource_areaEv() #15
  br label %_ZN16SafeResourceMarkC2Ev.exit

15:                                               ; preds = %9
  %16 = getelementptr inbounds i8, ptr %11, i64 800
  %17 = load ptr, ptr %16, align 8
  br label %_ZN16SafeResourceMarkC2Ev.exit

_ZN16SafeResourceMarkC2Ev.exit:                   ; preds = %7, %13, %15
  %.0.i.i = phi ptr [ %8, %7 ], [ %14, %13 ], [ %17, %15 ]
  %18 = getelementptr inbounds i8, ptr %.0.i.i, i64 24
  %19 = load ptr, ptr %18, align 8
  %20 = getelementptr inbounds i8, ptr %.0.i.i, i64 32
  %21 = load ptr, ptr %20, align 8
  %22 = getelementptr inbounds i8, ptr %.0.i.i, i64 40
  %23 = load ptr, ptr %22, align 8
  %24 = getelementptr inbounds i8, ptr %.0.i.i, i64 8
  %25 = load i64, ptr %24, align 8
  %26 = load volatile ptr, ptr getelementptr inbounds (i8, ptr @_ZN16LogTagSetMappingILN6LogTag4typeE69ELS1_0ELS1_0ELS1_0ELS1_0ELS1_0EE7_tagsetE, i64 48), align 8
  %.not8 = icmp eq ptr %26, null
  br i1 %.not8, label %28, label %27

27:                                               ; preds = %_ZN16SafeResourceMarkC2Ev.exit
  tail call void (ptr, ...) @_ZN7LogImplILN6LogTag4typeE69ELS1_0ELS1_0ELS1_0ELS1_0ELS1_0EE5writeILN8LogLevel4typeE1EEEvPKcz(ptr noundef nonnull @.str.21)
  br label %28

28:                                               ; preds = %_ZN16SafeResourceMarkC2Ev.exit, %27
  %29 = load ptr, ptr %19, align 8
  %.not.i.i.i.i.i = icmp eq ptr %29, null
  br i1 %.not.i.i.i.i.i, label %31, label %30

30:                                               ; preds = %28
  tail call void @_ZN5Arena17set_size_in_bytesEm(ptr noundef nonnull align 8 dereferenceable(48) %.0.i.i, i64 noundef %25) #15
  tail call void @_ZN5Chunk9next_chopEPS_(ptr noundef nonnull %19) #15
  br label %31

31:                                               ; preds = %30, %28
  %32 = load ptr, ptr %20, align 8
  %.not8.i.i.i.i.i = icmp eq ptr %32, %21
  br i1 %.not8.i.i.i.i.i, label %_ZN16SafeResourceMarkD2Ev.exit, label %33

33:                                               ; preds = %31
  store ptr %19, ptr %18, align 8
  store ptr %21, ptr %20, align 8
  store ptr %23, ptr %22, align 8
  br label %_ZN16SafeResourceMarkD2Ev.exit

_ZN16SafeResourceMarkD2Ev.exit:                   ; preds = %33, %31, %1
  %34 = load i32, ptr @_ZN12JvmtiEnvBase6_phaseE, align 4
  %35 = icmp eq i32 %34, 4
  br i1 %35, label %36, label %37

36:                                               ; preds = %_ZN16SafeResourceMarkD2Ev.exit
  tail call void @_ZN27JvmtiEventControllerPrivate10event_initEv()
  br label %37

37:                                               ; preds = %36, %_ZN16SafeResourceMarkD2Ev.exit
  tail call void @_ZN12JvmtiEnvBase10initializeEv(ptr noundef nonnull align 8 dereferenceable(460) %0) #15
  %.09 = load ptr, ptr @_ZN16JvmtiThreadState5_headE, align 8
  %.not10 = icmp eq ptr %.09, null
  br i1 %.not10, label %._crit_edge, label %.lr.ph

.lr.ph:                                           ; preds = %37, %.lr.ph
  %.011 = phi ptr [ %.0, %.lr.ph ], [ %.09, %37 ]
  tail call void @_ZN16JvmtiThreadState7add_envEP12JvmtiEnvBase(ptr noundef nonnull align 8 dereferenceable(184) %.011, ptr noundef nonnull %0) #15
  %38 = getelementptr inbounds i8, ptr %.011, i64 96
  %.0 = load ptr, ptr %38, align 8
  %.not = icmp eq ptr %.0, null
  br i1 %.not, label %._crit_edge, label %.lr.ph, !llvm.loop !19

._crit_edge:                                      ; preds = %.lr.ph, %37
  tail call void @_ZN27JvmtiEventControllerPrivate17recompute_enabledEv()
  ret void
}